target datalayout = "e-m:e-p270:32:32-p271:32:32-p272:64:64-i64:64-i128:128-f80:128-n8:16:32:64-S128"
target triple = "x86_64-pc-linux-gnu"

%struct.aiMaterialProperty = type { %struct.aiString, i32, i32, i32, i32, ptr }
%struct.aiString = type { i32, [1024 x i8] }

@.str = private unnamed_addr constant [18 x i8] c"Material property\00", align 1
@.str.1 = private unnamed_addr constant [55 x i8] c" is a string; failed to parse a float array out of it.\00", align 1

; Function Attrs: inlinehint mustprogress nounwind uwtable
define linkonce_odr hidden noundef zeroext i1 @_ZN6Assimp7IsSpaceIcEEbT_(i8 noundef signext %0) #4 comdat {
  %2 = alloca i8, align 1
  store i8 %0, ptr %2, align 1
  %3 = load i8, ptr %2, align 1
  %4 = sext i8 %3 to i32
  %5 = icmp eq i32 %4, 32
  br i1 %5, label %10, label %6

6:                                                ; preds = %1
  %7 = load i8, ptr %2, align 1
  %8 = sext i8 %7 to i32
  %9 = icmp eq i32 %8, 9
  br label %10

10:                                               ; preds = %6, %1
  %11 = phi i1 [ true, %1 ], [ %9, %6 ]
  ret i1 %11
}

; Function Attrs: inlinehint mustprogress nounwind uwtable
define linkonce_odr noundef nonnull align 4 dereferenceable(4) ptr @_ZSt3minIjERKT_S2_S2_(ptr noundef nonnull align 4 dereferenceable(4) %0, ptr noundef nonnull align 4 dereferenceable(4) %1) #4 comdat {
  %3 = alloca ptr, align 8
  %4 = alloca ptr, align 8
  %5 = alloca ptr, align 8
  store ptr %0, ptr %4, align 8
  store ptr %1, ptr %5, align 8
  %6 = load ptr, ptr %5, align 8
  %7 = load i32, ptr %6, align 4
  %8 = load ptr, ptr %4, align 8
  %9 = load i32, ptr %8, align 4
  %10 = icmp ult i32 %7, %9
  br i1 %10, label %11, label %13

11:                                               ; preds = %2
  %12 = load ptr, ptr %5, align 8
  store ptr %12, ptr %3, align 8
  br label %15

13:                                               ; preds = %2
  %14 = load ptr, ptr %4, align 8
  store ptr %14, ptr %3, align 8
  br label %15

15:                                               ; preds = %13, %11
  %16 = load ptr, ptr %3, align 8
  ret ptr %16
}

; Function Attrs: mustprogress uwtable
define i32 @aiGetMaterialFloatArray(ptr noundef %0, ptr noundef %1, i32 noundef %2, i32 noundef %3, ptr noundef %4, ptr noundef %5) #3 {
  %7 = alloca i32, align 4
  %8 = alloca ptr, align 8
  %9 = alloca ptr, align 8
  %10 = alloca i32, align 4
  %11 = alloca i32, align 4
  %12 = alloca ptr, align 8
  %13 = alloca ptr, align 8
  %14 = alloca ptr, align 8
  %15 = alloca i32, align 4
  %16 = alloca i32, align 4
  %17 = alloca i32, align 4
  %18 = alloca i32, align 4
  %19 = alloca i32, align 4
  %20 = alloca ptr, align 8
  %21 = alloca i32, align 4
  store ptr %0, ptr %8, align 8
  store ptr %1, ptr %9, align 8
  store i32 %2, ptr %10, align 4
  store i32 %3, ptr %11, align 4
  store ptr %4, ptr %12, align 8
  store ptr %5, ptr %13, align 8
  call void @llvm.lifetime.start.p0(i64 8, ptr %14) #17
  %22 = load ptr, ptr %8, align 8
  %23 = load ptr, ptr %9, align 8
  %24 = load i32, ptr %10, align 4
  %25 = load i32, ptr %11, align 4
  %26 = call i32 @aiGetMaterialProperty(ptr noundef %22, ptr noundef %23, i32 noundef %24, i32 noundef %25, ptr noundef %14)
  %27 = load ptr, ptr %14, align 8
  %28 = icmp eq ptr null, %27
  br i1 %28, label %29, label %30

29:                                               ; preds = %6
  store i32 -1, ptr %7, align 4
  store i32 1, ptr %15, align 4
  br label %224

30:                                               ; preds = %6
  call void @llvm.lifetime.start.p0(i64 4, ptr %16) #17
  store i32 0, ptr %16, align 4
  %31 = load ptr, ptr %14, align 8
  %32 = getelementptr inbounds nuw %struct.aiMaterialProperty, ptr %31, i32 0, i32 4
  %33 = load i32, ptr %32, align 8
  %34 = icmp eq i32 1, %33
  br i1 %34, label %40, label %35

35:                                               ; preds = %30
  %36 = load ptr, ptr %14, align 8
  %37 = getelementptr inbounds nuw %struct.aiMaterialProperty, ptr %36, i32 0, i32 4
  %38 = load i32, ptr %37, align 8
  %39 = icmp eq i32 5, %38
  br i1 %39, label %40, label %81

40:                                               ; preds = %35, %30
  %41 = load ptr, ptr %14, align 8
  %42 = getelementptr inbounds nuw %struct.aiMaterialProperty, ptr %41, i32 0, i32 3
  %43 = load i32, ptr %42, align 4
  %44 = zext i32 %43 to i64
  %45 = udiv i64 %44, 4
  %46 = trunc i64 %45 to i32
  store i32 %46, ptr %16, align 4
  %47 = load ptr, ptr %13, align 8
  %48 = icmp ne ptr %47, null
  br i1 %48, label %49, label %53

49:                                               ; preds = %40
  %50 = load ptr, ptr %13, align 8
  %51 = call noundef nonnull align 4 dereferenceable(4) ptr @_ZSt3minIjERKT_S2_S2_(ptr noundef nonnull align 4 dereferenceable(4) %50, ptr noundef nonnull align 4 dereferenceable(4) %16)
  %52 = load i32, ptr %51, align 4
  store i32 %52, ptr %16, align 4
  br label %53

53:                                               ; preds = %49, %40
  call void @llvm.lifetime.start.p0(i64 4, ptr %17) #17
  store i32 0, ptr %17, align 4
  br label %54

54:                                               ; preds = %71, %53
  %55 = load i32, ptr %17, align 4
  %56 = load i32, ptr %16, align 4
  %57 = icmp ult i32 %55, %56
  br i1 %57, label %59, label %58

58:                                               ; preds = %54
  store i32 2, ptr %15, align 4
  call void @llvm.lifetime.end.p0(i64 4, ptr %17) #17
  br label %74

59:                                               ; preds = %54
  %60 = load ptr, ptr %14, align 8
  %61 = getelementptr inbounds nuw %struct.aiMaterialProperty, ptr %60, i32 0, i32 5
  %62 = load ptr, ptr %61, align 8
  %63 = load i32, ptr %17, align 4
  %64 = zext i32 %63 to i64
  %65 = getelementptr inbounds nuw float, ptr %62, i64 %64
  %66 = load float, ptr %65, align 4
  %67 = load ptr, ptr %12, align 8
  %68 = load i32, ptr %17, align 4
  %69 = zext i32 %68 to i64
  %70 = getelementptr inbounds nuw float, ptr %67, i64 %69
  store float %66, ptr %70, align 4
  br label %71

71:                                               ; preds = %59
  %72 = load i32, ptr %17, align 4
  %73 = add i32 %72, 1
  store i32 %73, ptr %17, align 4
  br label %54, !llvm.loop !5

74:                                               ; preds = %58
  %75 = load ptr, ptr %13, align 8
  %76 = icmp ne ptr %75, null
  br i1 %76, label %77, label %80

77:                                               ; preds = %74
  %78 = load i32, ptr %16, align 4
  %79 = load ptr, ptr %13, align 8
  store i32 %78, ptr %79, align 4
  br label %80

80:                                               ; preds = %77, %74
  br label %222

81:                                               ; preds = %35
  %82 = load ptr, ptr %14, align 8
  %83 = getelementptr inbounds nuw %struct.aiMaterialProperty, ptr %82, i32 0, i32 4
  %84 = load i32, ptr %83, align 8
  %85 = icmp eq i32 2, %84
  br i1 %85, label %86, label %128

86:                                               ; preds = %81
  %87 = load ptr, ptr %14, align 8
  %88 = getelementptr inbounds nuw %struct.aiMaterialProperty, ptr %87, i32 0, i32 3
  %89 = load i32, ptr %88, align 4
  %90 = zext i32 %89 to i64
  %91 = udiv i64 %90, 8
  %92 = trunc i64 %91 to i32
  store i32 %92, ptr %16, align 4
  %93 = load ptr, ptr %13, align 8
  %94 = icmp ne ptr %93, null
  br i1 %94, label %95, label %99

95:                                               ; preds = %86
  %96 = load ptr, ptr %13, align 8
  %97 = call noundef nonnull align 4 dereferenceable(4) ptr @_ZSt3minIjERKT_S2_S2_(ptr noundef nonnull align 4 dereferenceable(4) %96, ptr noundef nonnull align 4 dereferenceable(4) %16)
  %98 = load i32, ptr %97, align 4
  store i32 %98, ptr %16, align 4
  br label %99

99:                                               ; preds = %95, %86
  call void @llvm.lifetime.start.p0(i64 4, ptr %18) #17
  store i32 0, ptr %18, align 4
  br label %100

100:                                              ; preds = %118, %99
  %101 = load i32, ptr %18, align 4
  %102 = load i32, ptr %16, align 4
  %103 = icmp ult i32 %101, %102
  br i1 %103, label %105, label %104

104:                                              ; preds = %100
  store i32 5, ptr %15, align 4
  call void @llvm.lifetime.end.p0(i64 4, ptr %18) #17
  br label %121

105:                                              ; preds = %100
  %106 = load ptr, ptr %14, align 8
  %107 = getelementptr inbounds nuw %struct.aiMaterialProperty, ptr %106, i32 0, i32 5
  %108 = load ptr, ptr %107, align 8
  %109 = load i32, ptr %18, align 4
  %110 = zext i32 %109 to i64
  %111 = getelementptr inbounds nuw double, ptr %108, i64 %110
  %112 = load double, ptr %111, align 8
  %113 = fptrunc double %112 to float
  %114 = load ptr, ptr %12, align 8
  %115 = load i32, ptr %18, align 4
  %116 = zext i32 %115 to i64
  %117 = getelementptr inbounds nuw float, ptr %114, i64 %116
  store float %113, ptr %117, align 4
  br label %118

118:                                              ; preds = %105
  %119 = load i32, ptr %18, align 4
  %120 = add i32 %119, 1
  store i32 %120, ptr %18, align 4
  br label %100, !llvm.loop !6

121:                                              ; preds = %104
  %122 = load ptr, ptr %13, align 8
  %123 = icmp ne ptr %122, null
  br i1 %123, label %124, label %127

124:                                              ; preds = %121
  %125 = load i32, ptr %16, align 4
  %126 = load ptr, ptr %13, align 8
  store i32 %125, ptr %126, align 4
  br label %127

127:                                              ; preds = %124, %121
  br label %221

128:                                              ; preds = %81
  %129 = load ptr, ptr %14, align 8
  %130 = getelementptr inbounds nuw %struct.aiMaterialProperty, ptr %129, i32 0, i32 4
  %131 = load i32, ptr %130, align 8
  %132 = icmp eq i32 4, %131
  br i1 %132, label %133, label %175

133:                                              ; preds = %128
  %134 = load ptr, ptr %14, align 8
  %135 = getelementptr inbounds nuw %struct.aiMaterialProperty, ptr %134, i32 0, i32 3
  %136 = load i32, ptr %135, align 4
  %137 = zext i32 %136 to i64
  %138 = udiv i64 %137, 4
  %139 = trunc i64 %138 to i32
  store i32 %139, ptr %16, align 4
  %140 = load ptr, ptr %13, align 8
  %141 = icmp ne ptr %140, null
  br i1 %141, label %142, label %146

142:                                              ; preds = %133
  %143 = load ptr, ptr %13, align 8
  %144 = call noundef nonnull align 4 dereferenceable(4) ptr @_ZSt3minIjERKT_S2_S2_(ptr noundef nonnull align 4 dereferenceable(4) %143, ptr noundef nonnull align 4 dereferenceable(4) %16)
  %145 = load i32, ptr %144, align 4
  store i32 %145, ptr %16, align 4
  br label %146

146:                                              ; preds = %142, %133
  call void @llvm.lifetime.start.p0(i64 4, ptr %19) #17
  store i32 0, ptr %19, align 4
  br label %147

147:                                              ; preds = %165, %146
  %148 = load i32, ptr %19, align 4
  %149 = load i32, ptr %16, align 4
  %150 = icmp ult i32 %148, %149
  br i1 %150, label %152, label %151

151:                                              ; preds = %147
  store i32 8, ptr %15, align 4
  call void @llvm.lifetime.end.p0(i64 4, ptr %19) #17
  br label %168

152:                                              ; preds = %147
  %153 = load ptr, ptr %14, align 8
  %154 = getelementptr inbounds nuw %struct.aiMaterialProperty, ptr %153, i32 0, i32 5
  %155 = load ptr, ptr %154, align 8
  %156 = load i32, ptr %19, align 4
  %157 = zext i32 %156 to i64
  %158 = getelementptr inbounds nuw i32, ptr %155, i64 %157
  %159 = load i32, ptr %158, align 4
  %160 = sitofp i32 %159 to float
  %161 = load ptr, ptr %12, align 8
  %162 = load i32, ptr %19, align 4
  %163 = zext i32 %162 to i64
  %164 = getelementptr inbounds nuw float, ptr %161, i64 %163
  store float %160, ptr %164, align 4
  br label %165

165:                                              ; preds = %152
  %166 = load i32, ptr %19, align 4
  %167 = add i32 %166, 1
  store i32 %167, ptr %19, align 4
  br label %147, !llvm.loop !7

168:                                              ; preds = %151
  %169 = load ptr, ptr %13, align 8
  %170 = icmp ne ptr %169, null
  br i1 %170, label %171, label %174

171:                                              ; preds = %168
  %172 = load i32, ptr %16, align 4
  %173 = load ptr, ptr %13, align 8
  store i32 %172, ptr %173, align 4
  br label %174

174:                                              ; preds = %171, %168
  br label %220

175:                                              ; preds = %128
  %176 = load ptr, ptr %13, align 8
  %177 = icmp ne ptr %176, null
  br i1 %177, label %178, label %181

178:                                              ; preds = %175
  %179 = load ptr, ptr %13, align 8
  %180 = load i32, ptr %179, align 4
  store i32 %180, ptr %16, align 4
  br label %181

181:                                              ; preds = %178, %175
  call void @llvm.lifetime.start.p0(i64 8, ptr %20) #17
  %182 = load ptr, ptr %14, align 8
  %183 = getelementptr inbounds nuw %struct.aiMaterialProperty, ptr %182, i32 0, i32 5
  %184 = load ptr, ptr %183, align 8
  %185 = getelementptr inbounds i8, ptr %184, i64 4
  store ptr %185, ptr %20, align 8
  call void @llvm.lifetime.start.p0(i64 4, ptr %21) #17
  store i32 0, ptr %21, align 4
  br label %186

186:                                              ; preds = %205, %181
  %187 = load ptr, ptr %20, align 8
  %188 = load ptr, ptr %12, align 8
  %189 = load i32, ptr %21, align 4
  %190 = zext i32 %189 to i64
  %191 = getelementptr inbounds nuw float, ptr %188, i64 %190
  %192 = call noundef ptr @_ZN6Assimp17fast_atoreal_moveIf17DeadlyImportErrorEEPKcS3_RT_b(ptr noundef %187, ptr noundef nonnull align 4 dereferenceable(4) %191, i1 noundef zeroext true)
  store ptr %192, ptr %20, align 8
  %193 = load i32, ptr %21, align 4
  %194 = load i32, ptr %16, align 4
  %195 = sub i32 %194, 1
  %196 = icmp eq i32 %193, %195
  br i1 %196, label %197, label %198

197:                                              ; preds = %186
  store i32 11, ptr %15, align 4
  br label %208

198:                                              ; preds = %186
  %199 = load ptr, ptr %20, align 8
  %200 = load i8, ptr %199, align 1
  %201 = call noundef zeroext i1 @_ZN6Assimp7IsSpaceIcEEbT_(i8 noundef signext %200)
  br i1 %201, label %204, label %202

202:                                              ; preds = %198
  %203 = call noundef ptr @_ZN6Assimp13DefaultLogger3getEv()
  call void @_ZN6Assimp6Logger5errorIJRA18_KcRPS2_RA55_S2_EEEvDpOT_(ptr noundef nonnull align 8 dereferenceable(12) %203, ptr noundef nonnull align 1 dereferenceable(18) @.str, ptr noundef nonnull align 8 dereferenceable(8) %9, ptr noundef nonnull align 1 dereferenceable(55) @.str.1)
  store i32 -1, ptr %7, align 4
  store i32 1, ptr %15, align 4
  br label %208

204:                                              ; preds = %198
  br label %205

205:                                              ; preds = %204
  %206 = load i32, ptr %21, align 4
  %207 = add i32 %206, 1
  store i32 %207, ptr %21, align 4
  br label %186, !llvm.loop !8

208:                                              ; preds = %202, %197
  call void @llvm.lifetime.end.p0(i64 4, ptr %21) #17
  %209 = load i32, ptr %15, align 4
  switch i32 %209, label %217 [
    i32 11, label %210
  ]

210:                                              ; preds = %208
  %211 = load ptr, ptr %13, align 8
  %212 = icmp ne ptr %211, null
  br i1 %212, label %213, label %216

213:                                              ; preds = %210
  %214 = load i32, ptr %16, align 4
  %215 = load ptr, ptr %13, align 8
  store i32 %214, ptr %215, align 4
  br label %216

216:                                              ; preds = %213, %210
  store i32 0, ptr %15, align 4
  br label %217

217:                                              ; preds = %216, %208
  call void @llvm.lifetime.end.p0(i64 8, ptr %20) #17
  %218 = load i32, ptr %15, align 4
  switch i32 %218, label %223 [
    i32 0, label %219
  ]

219:                                              ; preds = %217
  br label %220

220:                                              ; preds = %219, %174
  br label %221

221:                                              ; preds = %220, %127
  br label %222

222:                                              ; preds = %221, %80
  store i32 0, ptr %7, align 4
  store i32 1, ptr %15, align 4
  br label %223

223:                                              ; preds = %222, %217
  call void @llvm.lifetime.end.p0(i64 4, ptr %16) #17
  br label %224

224:                                              ; preds = %223, %29
  call void @llvm.lifetime.end.p0(i64 8, ptr %14) #17
  %225 = load i32, ptr %7, align 4
  ret i32 %225
}