; Function Attrs: mustprogress uwtable
define range(i32 -1, 1) i32 @aiGetMaterialFloatArray(ptr noundef readonly captures(none) %0, ptr noundef %1, i32 noundef %2, i32 noundef %3, ptr noundef %4, ptr noundef captures(address_is_null) %5) local_unnamed_addr #3 {
  %7 = alloca ptr, align 8
  %8 = alloca ptr, align 8
  store ptr %1, ptr %7, align 8
  call void @llvm.lifetime.start.p0(i64 8, ptr nonnull %8) #24
  %9 = call i32 @aiGetMaterialProperty(ptr noundef %0, ptr noundef %1, i32 noundef %2, i32 noundef %3, ptr noundef nonnull %8)
  %10 = load ptr, ptr %8, align 8
  %11 = icmp eq ptr %10, null
  br i1 %11, label %.critedge61, label %12

12:                                               ; preds = %6
  %13 = getelementptr inbounds nuw i8, ptr %10, i64 1040
  %14 = load i32, ptr %13, align 8
  switch i32 %14, label %59 [
    i32 1, label %15
    i32 5, label %15
    i32 2, label %29
    i32 4, label %44
  ]

15:                                               ; preds = %12, %12
  %16 = getelementptr inbounds nuw i8, ptr %10, i64 1036
  %17 = load i32, ptr %16, align 4
  %18 = lshr i32 %17, 2
  %.not59 = icmp eq ptr %5, null
  br i1 %.not59, label %21, label %19

19:                                               ; preds = %15
  %20 = load i32, ptr %5, align 4
  %.sroa.speculated76 = tail call i32 @llvm.umin.i32(i32 %18, i32 %20)
  br label %21

21:                                               ; preds = %19, %15
  %.087 = phi i32 [ %18, %15 ], [ %.sroa.speculated76, %19 ]
  %.not103 = icmp eq i32 %.087, 0
  br i1 %.not103, label %._crit_edge97, label %.lr.ph96

.lr.ph96:                                         ; preds = %21
  %22 = getelementptr inbounds nuw i8, ptr %10, i64 1048
  %wide.trip.count113 = zext nneg i32 %.087 to i64
  br label %23

._crit_edge97:                                    ; preds = %23, %21
  br i1 %.not59, label %.critedge61, label %28

23:                                               ; preds = %.lr.ph96, %23
  %indvars.iv110 = phi i64 [ 0, %.lr.ph96 ], [ %indvars.iv.next111, %23 ]
  %24 = load ptr, ptr %22, align 8
  %25 = getelementptr inbounds nuw float, ptr %24, i64 %indvars.iv110
  %26 = load float, ptr %25, align 4
  %27 = getelementptr inbounds nuw float, ptr %4, i64 %indvars.iv110
  store float %26, ptr %27, align 4
  %indvars.iv.next111 = add nuw nsw i64 %indvars.iv110, 1
  %exitcond114.not = icmp eq i64 %indvars.iv.next111, %wide.trip.count113
  br i1 %exitcond114.not, label %._crit_edge97, label %23, !llvm.loop !5

28:                                               ; preds = %._crit_edge97
  store i32 %.087, ptr %5, align 4
  br label %.critedge61

29:                                               ; preds = %12
  %30 = getelementptr inbounds nuw i8, ptr %10, i64 1036
  %31 = load i32, ptr %30, align 4
  %32 = lshr i32 %31, 3
  %.not58 = icmp eq ptr %5, null
  br i1 %.not58, label %35, label %33

33:                                               ; preds = %29
  %34 = load i32, ptr %5, align 4
  %.sroa.speculated73 = tail call i32 @llvm.umin.i32(i32 %32, i32 %34)
  br label %35

35:                                               ; preds = %33, %29
  %.1 = phi i32 [ %32, %29 ], [ %.sroa.speculated73, %33 ]
  %.not102 = icmp eq i32 %.1, 0
  br i1 %.not102, label %._crit_edge93, label %.lr.ph92

.lr.ph92:                                         ; preds = %35
  %36 = getelementptr inbounds nuw i8, ptr %10, i64 1048
  %wide.trip.count108 = zext nneg i32 %.1 to i64
  br label %37

._crit_edge93:                                    ; preds = %37, %35
  br i1 %.not58, label %.critedge61, label %43

37:                                               ; preds = %.lr.ph92, %37
  %indvars.iv105 = phi i64 [ 0, %.lr.ph92 ], [ %indvars.iv.next106, %37 ]
  %38 = load ptr, ptr %36, align 8
  %39 = getelementptr inbounds nuw double, ptr %38, i64 %indvars.iv105
  %40 = load double, ptr %39, align 8
  %41 = fptrunc double %40 to float
  %42 = getelementptr inbounds nuw float, ptr %4, i64 %indvars.iv105
  store float %41, ptr %42, align 4
  %indvars.iv.next106 = add nuw nsw i64 %indvars.iv105, 1
  %exitcond109.not = icmp eq i64 %indvars.iv.next106, %wide.trip.count108
  br i1 %exitcond109.not, label %._crit_edge93, label %37, !llvm.loop !6

43:                                               ; preds = %._crit_edge93
  store i32 %.1, ptr %5, align 4
  br label %.critedge61

44:                                               ; preds = %12
  %45 = getelementptr inbounds nuw i8, ptr %10, i64 1036
  %46 = load i32, ptr %45, align 4
  %47 = lshr i32 %46, 2
  %.not57 = icmp eq ptr %5, null
  br i1 %.not57, label %50, label %48

48:                                               ; preds = %44
  %49 = load i32, ptr %5, align 4
  %.sroa.speculated = tail call i32 @llvm.umin.i32(i32 %47, i32 %49)
  br label %50

50:                                               ; preds = %48, %44
  %.288 = phi i32 [ %47, %44 ], [ %.sroa.speculated, %48 ]
  %.not101 = icmp eq i32 %.288, 0
  br i1 %.not101, label %._crit_edge, label %.lr.ph

.lr.ph:                                           ; preds = %50
  %51 = getelementptr inbounds nuw i8, ptr %10, i64 1048
  %wide.trip.count = zext nneg i32 %.288 to i64
  br label %52

._crit_edge:                                      ; preds = %52, %50
  br i1 %.not57, label %.critedge61, label %58

52:                                               ; preds = %.lr.ph, %52
  %indvars.iv = phi i64 [ 0, %.lr.ph ], [ %indvars.iv.next, %52 ]
  %53 = load ptr, ptr %51, align 8
  %54 = getelementptr inbounds nuw i32, ptr %53, i64 %indvars.iv
  %55 = load i32, ptr %54, align 4
  %56 = sitofp i32 %55 to float
  %57 = getelementptr inbounds nuw float, ptr %4, i64 %indvars.iv
  store float %56, ptr %57, align 4
  %indvars.iv.next = add nuw nsw i64 %indvars.iv, 1
  %exitcond.not = icmp eq i64 %indvars.iv.next, %wide.trip.count
  br i1 %exitcond.not, label %._crit_edge, label %52, !llvm.loop !7

58:                                               ; preds = %._crit_edge
  store i32 %.288, ptr %5, align 4
  br label %.critedge61

59:                                               ; preds = %12
  %.not = icmp eq ptr %5, null
  br i1 %.not, label %62, label %60

60:                                               ; preds = %59
  %61 = load i32, ptr %5, align 4
  br label %62

62:                                               ; preds = %60, %59
  %.3 = phi i32 [ 0, %59 ], [ %61, %60 ]
  %63 = getelementptr inbounds nuw i8, ptr %10, i64 1048
  %64 = load ptr, ptr %63, align 8
  %65 = getelementptr inbounds nuw i8, ptr %64, i64 4
  %66 = tail call noundef ptr @_ZN6Assimp17fast_atoreal_moveIf17DeadlyImportErrorEEPKcS3_RT_b(ptr noundef nonnull %65, ptr noundef nonnull align 4 dereferenceable(4) %4, i1 noundef zeroext true)
  %67 = add i32 %.3, -1
  %68 = icmp eq i32 %67, 0
  br i1 %68, label %.critedge, label %.lr.ph100.preheader

.lr.ph100.preheader:                              ; preds = %62
  %69 = zext i32 %67 to i64
  br label %.lr.ph100

.lr.ph100:                                        ; preds = %.lr.ph100.preheader, %74
  %indvars.iv115 = phi i64 [ 0, %.lr.ph100.preheader ], [ %indvars.iv.next116, %74 ]
  %70 = phi ptr [ %66, %.lr.ph100.preheader ], [ %76, %74 ]
  %71 = load i8, ptr %70, align 1
  switch i8 %71, label %72 [
    i8 32, label %74
    i8 9, label %74
  ]

72:                                               ; preds = %.lr.ph100
  %73 = tail call noundef ptr @_ZN6Assimp13DefaultLogger3getEv()
  call void @_ZN6Assimp6Logger5errorIJRA18_KcRPS2_RA55_S2_EEEvDpOT_(ptr noundef nonnull align 8 dereferenceable(12) %73, ptr noundef nonnull align 1 dereferenceable(18) @.str, ptr noundef nonnull align 8 dereferenceable(8) %7, ptr noundef nonnull align 1 dereferenceable(55) @.str.1)
  br label %.critedge61

74:                                               ; preds = %.lr.ph100, %.lr.ph100
  %indvars.iv.next116 = add nuw nsw i64 %indvars.iv115, 1
  %75 = getelementptr inbounds nuw float, ptr %4, i64 %indvars.iv.next116
  %76 = tail call noundef ptr @_ZN6Assimp17fast_atoreal_moveIf17DeadlyImportErrorEEPKcS3_RT_b(ptr noundef nonnull %70, ptr noundef nonnull align 4 dereferenceable(4) %75, i1 noundef zeroext true)
  %77 = icmp eq i64 %indvars.iv.next116, %69
  br i1 %77, label %.critedge, label %.lr.ph100, !llvm.loop !8

.critedge:                                        ; preds = %74, %62
  br i1 %.not, label %.critedge61, label %78

78:                                               ; preds = %.critedge
  store i32 %.3, ptr %5, align 4
  br label %.critedge61

.critedge61:                                      ; preds = %72, %78, %.critedge, %43, %._crit_edge93, %._crit_edge, %58, %._crit_edge97, %28, %6
  %.048 = phi i32 [ -1, %6 ], [ -1, %72 ], [ 0, %78 ], [ 0, %.critedge ], [ 0, %43 ], [ 0, %._crit_edge93 ], [ 0, %._crit_edge ], [ 0, %58 ], [ 0, %._crit_edge97 ], [ 0, %28 ]
  call void @llvm.lifetime.end.p0(i64 8, ptr nonnull %8) #24
  ret i32 %.048
}